(dp0
S'MERCUTIO'
p1
F0.1010844306738962
sS'FRIAR LAURENCE'
p2
F0.1351665375677769
sS'LADY CAPULET'
p3
F0.04453911696359411
sS'ROMEO'
p4
F0.23663826491092177
sS'Nurse'
p5
F0.10534469403563129
sS'CAPULET'
p6
F0.10534469403563129
sS'BENVOLIO'
p7
F0.061967467079783116
sS'JULIET'
p8
F0.2099147947327653
s.